; Function Attrs: mustprogress uwtable
define hidden void @_ZN4LIEF10SpanStreamC2EN3tcb4spanIhLm18446744073709551615EEE(ptr noundef nonnull align 8 dereferenceable(40) %0, ptr %1, i64 %2) unnamed_addr #5 align 2 {
  tail call void @_ZN4LIEF12BinaryStreamC2Ev(ptr noundef nonnull align 8 dereferenceable(24) %0)
  store ptr getelementptr inbounds ({ [15 x ptr] }, ptr @_ZTVN4LIEF10SpanStreamE, i64 0, i32 0, i64 2), ptr %0, align 8
  %4 = getelementptr inbounds i8, ptr %0, i64 24
  store ptr %1, ptr %4, align 8
  %.sroa.2.0..sroa_idx.i = getelementptr inbounds i8, ptr %0, i64 32
  store i64 %2, ptr %.sroa.2.0..sroa_idx.i, align 8
  %5 = getelementptr inbounds i8, ptr %0, i64 20
  store i32 3, ptr %5, align 4
  ret void
}